target datalayout = "e-m:e-p270:32:32-p271:32:32-p272:64:64-i64:64-f80:128-n8:16:32:64-S128"
target triple = "x86_64-pc-linux-gnu"

@.str = private unnamed_addr constant [3 x i8] c"%d\00", align 1
@.str.1 = private unnamed_addr constant [6 x i8] c"%s\0A%s\00", align 1
@.str.2 = private unnamed_addr constant [2 x i8] c"\0A\00", align 1

; Function Attrs: noinline nounwind uwtable
define dso_local i32 @main() #0 {
  %1 = alloca i32, align 4
  %2 = alloca i32, align 4
  %3 = alloca i32, align 4
  %4 = alloca [101 x i8], align 16
  %5 = alloca [101 x i8], align 16
  %6 = alloca i32, align 4
  %7 = alloca i32, align 4
  %8 = alloca [101 x i32], align 16
  %9 = alloca [101 x i32], align 16
  %10 = alloca [101 x i32], align 16
  %11 = alloca i32, align 4
  %12 = alloca i32, align 4
  store i32 0, i32* %1, align 4
  %13 = call i32 (i8*, ...) @__isoc99_scanf(i8* getelementptr inbounds ([3 x i8], [3 x i8]* @.str, i64 0, i64 0), i32* %2)
  store i32 0, i32* %3, align 4
  br label %14

14:                                               ; preds = %161, %0
  %15 = load i32, i32* %3, align 4
  %16 = load i32, i32* %2, align 4
  %17 = icmp slt i32 %15, %16
  br i1 %17, label %18, label %164

18:                                               ; preds = %14
  %19 = bitcast [101 x i8]* %4 to i8*
  call void @llvm.memset.p0i8.i64(i8* align 16 %19, i8 0, i64 101, i1 false)
  %20 = bitcast i8* %19 to <{ i8, [100 x i8] }>*
  %21 = getelementptr inbounds <{ i8, [100 x i8] }>, <{ i8, [100 x i8] }>* %20, i32 0, i32 0
  store i8 48, i8* %21, align 16
  %22 = bitcast [101 x i8]* %5 to i8*
  call void @llvm.memset.p0i8.i64(i8* align 16 %22, i8 0, i64 101, i1 false)
  %23 = bitcast i8* %22 to <{ i8, [100 x i8] }>*
  %24 = getelementptr inbounds <{ i8, [100 x i8] }>, <{ i8, [100 x i8] }>* %23, i32 0, i32 0
  store i8 48, i8* %24, align 16
  %25 = getelementptr inbounds [101 x i8], [101 x i8]* %4, i64 0, i64 0
  %26 = getelementptr inbounds [101 x i8], [101 x i8]* %5, i64 0, i64 0
  %27 = call i32 (i8*, ...) @__isoc99_scanf(i8* getelementptr inbounds ([6 x i8], [6 x i8]* @.str.1, i64 0, i64 0), i8* %25, i8* %26)
  %28 = getelementptr inbounds [101 x i8], [101 x i8]* %4, i64 0, i64 0
  %29 = call i64 @strlen(i8* %28) #4
  %30 = trunc i64 %29 to i32
  store i32 %30, i32* %6, align 4
  %31 = getelementptr inbounds [101 x i8], [101 x i8]* %5, i64 0, i64 0
  %32 = call i64 @strlen(i8* %31) #4
  %33 = trunc i64 %32 to i32
  store i32 %33, i32* %7, align 4
  %34 = bitcast [101 x i32]* %8 to i8*
  call void @llvm.memset.p0i8.i64(i8* align 16 %34, i8 0, i64 404, i1 false)
  %35 = bitcast [101 x i32]* %9 to i8*
  call void @llvm.memset.p0i8.i64(i8* align 16 %35, i8 0, i64 404, i1 false)
  %36 = bitcast [101 x i32]* %10 to i8*
  call void @llvm.memset.p0i8.i64(i8* align 16 %36, i8 0, i64 404, i1 false)
  store i32 0, i32* %11, align 4
  br label %37

37:                                               ; preds = %54, %18
  %38 = load i32, i32* %11, align 4
  %39 = load i32, i32* %6, align 4
  %40 = icmp slt i32 %38, %39
  br i1 %40, label %41, label %57

41:                                               ; preds = %37
  %42 = load i32, i32* %6, align 4
  %43 = sub nsw i32 %42, 1
  %44 = load i32, i32* %11, align 4
  %45 = sub nsw i32 %43, %44
  %46 = sext i32 %45 to i64
  %47 = getelementptr inbounds [101 x i8], [101 x i8]* %4, i64 0, i64 %46
  %48 = load i8, i8* %47, align 1
  %49 = sext i8 %48 to i32
  %50 = sub nsw i32 %49, 48
  %51 = load i32, i32* %11, align 4
  %52 = sext i32 %51 to i64
  %53 = getelementptr inbounds [101 x i32], [101 x i32]* %8, i64 0, i64 %52
  store i32 %50, i32* %53, align 4
  br label %54

54:                                               ; preds = %41
  %55 = load i32, i32* %11, align 4
  %56 = add nsw i32 %55, 1
  store i32 %56, i32* %11, align 4
  br label %37

57:                                               ; preds = %37
  store i32 0, i32* %11, align 4
  br label %58

58:                                               ; preds = %75, %57
  %59 = load i32, i32* %11, align 4
  %60 = load i32, i32* %7, align 4
  %61 = icmp slt i32 %59, %60
  br i1 %61, label %62, label %78

62:                                               ; preds = %58
  %63 = load i32, i32* %7, align 4
  %64 = sub nsw i32 %63, 1
  %65 = load i32, i32* %11, align 4
  %66 = sub nsw i32 %64, %65
  %67 = sext i32 %66 to i64
  %68 = getelementptr inbounds [101 x i8], [101 x i8]* %5, i64 0, i64 %67
  %69 = load i8, i8* %68, align 1
  %70 = sext i8 %69 to i32
  %71 = sub nsw i32 %70, 48
  %72 = load i32, i32* %11, align 4
  %73 = sext i32 %72 to i64
  %74 = getelementptr inbounds [101 x i32], [101 x i32]* %9, i64 0, i64 %73
  store i32 %71, i32* %74, align 4
  br label %75

75:                                               ; preds = %62
  %76 = load i32, i32* %11, align 4
  %77 = add nsw i32 %76, 1
  store i32 %77, i32* %11, align 4
  br label %58

78:                                               ; preds = %58
  store i32 0, i32* %12, align 4
  store i32 0, i32* %11, align 4
  br label %79

79:                                               ; preds = %127, %78
  %80 = load i32, i32* %11, align 4
  %81 = load i32, i32* %6, align 4
  %82 = icmp slt i32 %80, %81
  br i1 %82, label %83, label %130

83:                                               ; preds = %79
  %84 = load i32, i32* %11, align 4
  %85 = sext i32 %84 to i64
  %86 = getelementptr inbounds [101 x i32], [101 x i32]* %8, i64 0, i64 %85
  %87 = load i32, i32* %86, align 4
  %88 = load i32, i32* %12, align 4
  %89 = sub nsw i32 %87, %88
  %90 = load i32, i32* %11, align 4
  %91 = sext i32 %90 to i64
  %92 = getelementptr inbounds [101 x i32], [101 x i32]* %9, i64 0, i64 %91
  %93 = load i32, i32* %92, align 4
  %94 = icmp sge i32 %89, %93
  br i1 %94, label %95, label %110

95:                                               ; preds = %83
  %96 = load i32, i32* %11, align 4
  %97 = sext i32 %96 to i64
  %98 = getelementptr inbounds [101 x i32], [101 x i32]* %8, i64 0, i64 %97
  %99 = load i32, i32* %98, align 4
  %100 = load i32, i32* %12, align 4
  %101 = sub nsw i32 %99, %100
  %102 = load i32, i32* %11, align 4
  %103 = sext i32 %102 to i64
  %104 = getelementptr inbounds [101 x i32], [101 x i32]* %9, i64 0, i64 %103
  %105 = load i32, i32* %104, align 4
  %106 = sub nsw i32 %101, %105
  %107 = load i32, i32* %11, align 4
  %108 = sext i32 %107 to i64
  %109 = getelementptr inbounds [101 x i32], [101 x i32]* %10, i64 0, i64 %108
  store i32 %106, i32* %109, align 4
  store i32 0, i32* %12, align 4
  br label %126

110:                                              ; preds = %83
  %111 = load i32, i32* %11, align 4
  %112 = sext i32 %111 to i64
  %113 = getelementptr inbounds [101 x i32], [101 x i32]* %8, i64 0, i64 %112
  %114 = load i32, i32* %113, align 4
  %115 = load i32, i32* %12, align 4
  %116 = sub nsw i32 %114, %115
  %117 = add nsw i32 %116, 10
  %118 = load i32, i32* %11, align 4
  %119 = sext i32 %118 to i64
  %120 = getelementptr inbounds [101 x i32], [101 x i32]* %9, i64 0, i64 %119
  %121 = load i32, i32* %120, align 4
  %122 = sub nsw i32 %117, %121
  %123 = load i32, i32* %11, align 4
  %124 = sext i32 %123 to i64
  %125 = getelementptr inbounds [101 x i32], [101 x i32]* %10, i64 0, i64 %124
  store i32 %122, i32* %125, align 4
  store i32 1, i32* %12, align 4
  br label %126

126:                                              ; preds = %110, %95
  br label %127

127:                                              ; preds = %126
  %128 = load i32, i32* %11, align 4
  %129 = add nsw i32 %128, 1
  store i32 %129, i32* %11, align 4
  br label %79

130:                                              ; preds = %79
  %131 = call i32 (i8*, ...) @printf(i8* getelementptr inbounds ([2 x i8], [2 x i8]* @.str.2, i64 0, i64 0))
  %132 = load i32, i32* %6, align 4
  %133 = sub nsw i32 %132, 1
  %134 = sext i32 %133 to i64
  %135 = getelementptr inbounds [101 x i32], [101 x i32]* %10, i64 0, i64 %134
  %136 = load i32, i32* %135, align 4
  %137 = icmp ne i32 %136, 0
  br i1 %137, label %138, label %145

138:                                              ; preds = %130
  %139 = load i32, i32* %6, align 4
  %140 = sub nsw i32 %139, 1
  %141 = sext i32 %140 to i64
  %142 = getelementptr inbounds [101 x i32], [101 x i32]* %10, i64 0, i64 %141
  %143 = load i32, i32* %142, align 4
  %144 = call i32 (i8*, ...) @printf(i8* getelementptr inbounds ([3 x i8], [3 x i8]* @.str, i64 0, i64 0), i32 %143)
  br label %145

145:                                              ; preds = %138, %130
  %146 = load i32, i32* %6, align 4
  %147 = sub nsw i32 %146, 2
  store i32 %147, i32* %11, align 4
  br label %148

148:                                              ; preds = %157, %145
  %149 = load i32, i32* %11, align 4
  %150 = icmp sge i32 %149, 0
  br i1 %150, label %151, label %160

151:                                              ; preds = %148
  %152 = load i32, i32* %11, align 4
  %153 = sext i32 %152 to i64
  %154 = getelementptr inbounds [101 x i32], [101 x i32]* %10, i64 0, i64 %153
  %155 = load i32, i32* %154, align 4
  %156 = call i32 (i8*, ...) @printf(i8* getelementptr inbounds ([3 x i8], [3 x i8]* @.str, i64 0, i64 0), i32 %155)
  br label %157

157:                                              ; preds = %151
  %158 = load i32, i32* %11, align 4
  %159 = add nsw i32 %158, -1
  store i32 %159, i32* %11, align 4
  br label %148

160:                                              ; preds = %148
  br label %161

161:                                              ; preds = %160
  %162 = load i32, i32* %3, align 4
  %163 = add nsw i32 %162, 1
  store i32 %163, i32* %3, align 4
  br label %14

164:                                              ; preds = %14
  ret i32 0
}