; Function Attrs: nofree nounwind sspstrong uwtable
define dso_local i32 @main() local_unnamed_addr #0 {
  %1 = alloca i32, align 4
  %2 = alloca [101 x i8], align 16
  %3 = alloca [101 x i8], align 16
  %4 = alloca [101 x i32], align 16
  %5 = alloca [101 x i32], align 16
  %6 = alloca [101 x i32], align 16
  %7 = bitcast i32* %1 to i8*
  call void @llvm.lifetime.start.p0i8(i64 4, i8* nonnull %7) #6
  %8 = call i32 (i8*, ...) @__isoc99_scanf(i8* getelementptr inbounds ([3 x i8], [3 x i8]* @.str, i64 0, i64 0), i32* nonnull %1)
  %9 = getelementptr inbounds [101 x i8], [101 x i8]* %2, i64 0, i64 0
  %10 = getelementptr inbounds [101 x i8], [101 x i8]* %3, i64 0, i64 0
  %11 = bitcast [101 x i32]* %4 to i8*
  %12 = bitcast [101 x i32]* %5 to i8*
  %13 = bitcast [101 x i32]* %6 to i8*
  %14 = load i32, i32* %1, align 4, !tbaa !5
  %15 = icmp sgt i32 %14, 0
  br i1 %15, label %16, label %278

16:                                               ; preds = %0, %274
  %17 = phi i32 [ %275, %274 ], [ 0, %0 ]
  call void @llvm.lifetime.start.p0i8(i64 101, i8* nonnull %9) #6
  call void @llvm.memset.p0i8.i64(i8* noundef nonnull align 16 dereferenceable(101) %9, i8 0, i64 101, i1 false)
  store i8 48, i8* %9, align 16
  call void @llvm.lifetime.start.p0i8(i64 101, i8* nonnull %10) #6
  call void @llvm.memset.p0i8.i64(i8* noundef nonnull align 16 dereferenceable(101) %10, i8 0, i64 101, i1 false)
  store i8 48, i8* %10, align 16
  %18 = call i32 (i8*, ...) @__isoc99_scanf(i8* getelementptr inbounds ([6 x i8], [6 x i8]* @.str.1, i64 0, i64 0), i8* nonnull %9, i8* nonnull %10)
  %19 = call i64 @strlen(i8* noundef nonnull %9) #7
  %20 = trunc i64 %19 to i32
  %21 = call i64 @strlen(i8* noundef nonnull %10) #7
  %22 = trunc i64 %21 to i32
  call void @llvm.lifetime.start.p0i8(i64 404, i8* nonnull %11) #6
  call void @llvm.memset.p0i8.i64(i8* noundef nonnull align 16 dereferenceable(404) %11, i8 0, i64 404, i1 false)
  call void @llvm.lifetime.start.p0i8(i64 404, i8* nonnull %12) #6
  call void @llvm.memset.p0i8.i64(i8* noundef nonnull align 16 dereferenceable(404) %12, i8 0, i64 404, i1 false)
  call void @llvm.lifetime.start.p0i8(i64 404, i8* nonnull %13) #6
  call void @llvm.memset.p0i8.i64(i8* noundef nonnull align 16 dereferenceable(404) %13, i8 0, i64 404, i1 false)
  %23 = icmp sgt i32 %20, 0
  br i1 %23, label %24, label %88

24:                                               ; preds = %16
  %25 = and i64 %19, 4294967295
  %26 = icmp ult i64 %25, 8
  br i1 %26, label %66, label %27

27:                                               ; preds = %24
  %28 = add nsw i64 %25, -1
  %29 = add i32 %20, -1
  %30 = trunc i64 %28 to i32
  %31 = sub i32 %29, %30
  %32 = icmp sgt i32 %31, %29
  %33 = icmp ugt i64 %28, 4294967295
  %34 = or i1 %32, %33
  br i1 %34, label %66, label %35

35:                                               ; preds = %27
  %36 = and i64 %19, 7
  %37 = sub nsw i64 %25, %36
  %38 = trunc i64 %37 to i32
  br label %39

39:                                               ; preds = %39, %35
  %40 = phi i64 [ 0, %35 ], [ %62, %39 ]
  %41 = xor i64 %40, -1
  %42 = add i64 %19, %41
  %43 = shl i64 %42, 32
  %44 = ashr exact i64 %43, 32
  %45 = getelementptr inbounds [101 x i8], [101 x i8]* %2, i64 0, i64 %44
  %46 = getelementptr inbounds i8, i8* %45, i64 -3
  %47 = bitcast i8* %46 to <4 x i8>*
  %48 = load <4 x i8>, <4 x i8>* %47, align 1, !tbaa !9
  %49 = shufflevector <4 x i8> %48, <4 x i8> poison, <4 x i32> <i32 3, i32 2, i32 1, i32 0>
  %50 = getelementptr inbounds i8, i8* %45, i64 -7
  %51 = bitcast i8* %50 to <4 x i8>*
  %52 = load <4 x i8>, <4 x i8>* %51, align 1, !tbaa !9
  %53 = shufflevector <4 x i8> %52, <4 x i8> poison, <4 x i32> <i32 3, i32 2, i32 1, i32 0>
  %54 = sext <4 x i8> %49 to <4 x i32>
  %55 = sext <4 x i8> %53 to <4 x i32>
  %56 = add nsw <4 x i32> %54, <i32 -48, i32 -48, i32 -48, i32 -48>
  %57 = add nsw <4 x i32> %55, <i32 -48, i32 -48, i32 -48, i32 -48>
  %58 = getelementptr inbounds [101 x i32], [101 x i32]* %4, i64 0, i64 %40
  %59 = bitcast i32* %58 to <4 x i32>*
  store <4 x i32> %56, <4 x i32>* %59, align 16, !tbaa !5
  %60 = getelementptr inbounds i32, i32* %58, i64 4
  %61 = bitcast i32* %60 to <4 x i32>*
  store <4 x i32> %57, <4 x i32>* %61, align 16, !tbaa !5
  %62 = add nuw i64 %40, 8
  %63 = icmp eq i64 %62, %37
  br i1 %63, label %64, label %39, !llvm.loop !10

64:                                               ; preds = %39
  %65 = icmp eq i64 %36, 0
  br i1 %65, label %88, label %66

66:                                               ; preds = %27, %24, %64
  %67 = phi i64 [ 0, %27 ], [ 0, %24 ], [ %37, %64 ]
  %68 = phi i32 [ 0, %27 ], [ 0, %24 ], [ %38, %64 ]
  %69 = sub i64 %19, %67
  %70 = add nsw i64 %67, 1
  %71 = and i64 %69, 1
  %72 = icmp eq i64 %71, 0
  br i1 %72, label %84, label %73

73:                                               ; preds = %66
  %74 = xor i32 %68, -1
  %75 = add i32 %74, %20
  %76 = sext i32 %75 to i64
  %77 = getelementptr inbounds [101 x i8], [101 x i8]* %2, i64 0, i64 %76
  %78 = load i8, i8* %77, align 1, !tbaa !9
  %79 = sext i8 %78 to i32
  %80 = add nsw i32 %79, -48
  %81 = getelementptr inbounds [101 x i32], [101 x i32]* %4, i64 0, i64 %67
  store i32 %80, i32* %81, align 4, !tbaa !5
  %82 = add nuw nsw i64 %67, 1
  %83 = add nuw nsw i32 %68, 1
  br label %84

84:                                               ; preds = %73, %66
  %85 = phi i64 [ %82, %73 ], [ %67, %66 ]
  %86 = phi i32 [ %83, %73 ], [ %68, %66 ]
  %87 = icmp eq i64 %25, %70
  br i1 %87, label %88, label %154

88:                                               ; preds = %84, %154, %64, %16
  %89 = icmp sgt i32 %22, 0
  br i1 %89, label %90, label %177

90:                                               ; preds = %88
  %91 = and i64 %21, 4294967295
  %92 = icmp ult i64 %91, 8
  br i1 %92, label %132, label %93

93:                                               ; preds = %90
  %94 = add nsw i64 %91, -1
  %95 = add i32 %22, -1
  %96 = trunc i64 %94 to i32
  %97 = sub i32 %95, %96
  %98 = icmp sgt i32 %97, %95
  %99 = icmp ugt i64 %94, 4294967295
  %100 = or i1 %98, %99
  br i1 %100, label %132, label %101

101:                                              ; preds = %93
  %102 = and i64 %21, 7
  %103 = sub nsw i64 %91, %102
  %104 = trunc i64 %103 to i32
  br label %105

105:                                              ; preds = %105, %101
  %106 = phi i64 [ 0, %101 ], [ %128, %105 ]
  %107 = xor i64 %106, -1
  %108 = add i64 %21, %107
  %109 = shl i64 %108, 32
  %110 = ashr exact i64 %109, 32
  %111 = getelementptr inbounds [101 x i8], [101 x i8]* %3, i64 0, i64 %110
  %112 = getelementptr inbounds i8, i8* %111, i64 -3
  %113 = bitcast i8* %112 to <4 x i8>*
  %114 = load <4 x i8>, <4 x i8>* %113, align 1, !tbaa !9
  %115 = shufflevector <4 x i8> %114, <4 x i8> poison, <4 x i32> <i32 3, i32 2, i32 1, i32 0>
  %116 = getelementptr inbounds i8, i8* %111, i64 -7
  %117 = bitcast i8* %116 to <4 x i8>*
  %118 = load <4 x i8>, <4 x i8>* %117, align 1, !tbaa !9
  %119 = shufflevector <4 x i8> %118, <4 x i8> poison, <4 x i32> <i32 3, i32 2, i32 1, i32 0>
  %120 = sext <4 x i8> %115 to <4 x i32>
  %121 = sext <4 x i8> %119 to <4 x i32>
  %122 = add nsw <4 x i32> %120, <i32 -48, i32 -48, i32 -48, i32 -48>
  %123 = add nsw <4 x i32> %121, <i32 -48, i32 -48, i32 -48, i32 -48>
  %124 = getelementptr inbounds [101 x i32], [101 x i32]* %5, i64 0, i64 %106
  %125 = bitcast i32* %124 to <4 x i32>*
  store <4 x i32> %122, <4 x i32>* %125, align 16, !tbaa !5
  %126 = getelementptr inbounds i32, i32* %124, i64 4
  %127 = bitcast i32* %126 to <4 x i32>*
  store <4 x i32> %123, <4 x i32>* %127, align 16, !tbaa !5
  %128 = add nuw i64 %106, 8
  %129 = icmp eq i64 %128, %103
  br i1 %129, label %130, label %105, !llvm.loop !13

130:                                              ; preds = %105
  %131 = icmp eq i64 %102, 0
  br i1 %131, label %177, label %132

132:                                              ; preds = %93, %90, %130
  %133 = phi i64 [ 0, %93 ], [ 0, %90 ], [ %103, %130 ]
  %134 = phi i32 [ 0, %93 ], [ 0, %90 ], [ %104, %130 ]
  %135 = sub i64 %21, %133
  %136 = add nsw i64 %133, 1
  %137 = and i64 %135, 1
  %138 = icmp eq i64 %137, 0
  br i1 %138, label %150, label %139

139:                                              ; preds = %132
  %140 = xor i32 %134, -1
  %141 = add i32 %140, %22
  %142 = sext i32 %141 to i64
  %143 = getelementptr inbounds [101 x i8], [101 x i8]* %3, i64 0, i64 %142
  %144 = load i8, i8* %143, align 1, !tbaa !9
  %145 = sext i8 %144 to i32
  %146 = add nsw i32 %145, -48
  %147 = getelementptr inbounds [101 x i32], [101 x i32]* %5, i64 0, i64 %133
  store i32 %146, i32* %147, align 4, !tbaa !5
  %148 = add nuw nsw i64 %133, 1
  %149 = add nuw nsw i32 %134, 1
  br label %150

150:                                              ; preds = %139, %132
  %151 = phi i64 [ %148, %139 ], [ %133, %132 ]
  %152 = phi i32 [ %149, %139 ], [ %134, %132 ]
  %153 = icmp eq i64 %91, %136
  br i1 %153, label %177, label %184

154:                                              ; preds = %84, %154
  %155 = phi i64 [ %174, %154 ], [ %85, %84 ]
  %156 = phi i32 [ %175, %154 ], [ %86, %84 ]
  %157 = xor i32 %156, -1
  %158 = add i32 %157, %20
  %159 = sext i32 %158 to i64
  %160 = getelementptr inbounds [101 x i8], [101 x i8]* %2, i64 0, i64 %159
  %161 = load i8, i8* %160, align 1, !tbaa !9
  %162 = sext i8 %161 to i32
  %163 = add nsw i32 %162, -48
  %164 = getelementptr inbounds [101 x i32], [101 x i32]* %4, i64 0, i64 %155
  store i32 %163, i32* %164, align 4, !tbaa !5
  %165 = add nuw nsw i64 %155, 1
  %166 = sub i32 -2, %156
  %167 = add i32 %166, %20
  %168 = sext i32 %167 to i64
  %169 = getelementptr inbounds [101 x i8], [101 x i8]* %2, i64 0, i64 %168
  %170 = load i8, i8* %169, align 1, !tbaa !9
  %171 = sext i8 %170 to i32
  %172 = add nsw i32 %171, -48
  %173 = getelementptr inbounds [101 x i32], [101 x i32]* %4, i64 0, i64 %165
  store i32 %172, i32* %173, align 4, !tbaa !5
  %174 = add nuw nsw i64 %155, 2
  %175 = add nuw nsw i32 %156, 2
  %176 = icmp eq i64 %174, %25
  br i1 %176, label %88, label %154, !llvm.loop !14

177:                                              ; preds = %150, %184, %130, %88
  br i1 %23, label %178, label %252

178:                                              ; preds = %177
  %179 = and i64 %19, 4294967295
  %180 = and i64 %19, 1
  %181 = icmp eq i64 %179, 1
  br i1 %181, label %237, label %182

182:                                              ; preds = %178
  %183 = sub nsw i64 %179, %180
  br label %207

184:                                              ; preds = %150, %184
  %185 = phi i64 [ %204, %184 ], [ %151, %150 ]
  %186 = phi i32 [ %205, %184 ], [ %152, %150 ]
  %187 = xor i32 %186, -1
  %188 = add i32 %187, %22
  %189 = sext i32 %188 to i64
  %190 = getelementptr inbounds [101 x i8], [101 x i8]* %3, i64 0, i64 %189
  %191 = load i8, i8* %190, align 1, !tbaa !9
  %192 = sext i8 %191 to i32
  %193 = add nsw i32 %192, -48
  %194 = getelementptr inbounds [101 x i32], [101 x i32]* %5, i64 0, i64 %185
  store i32 %193, i32* %194, align 4, !tbaa !5
  %195 = add nuw nsw i64 %185, 1
  %196 = sub i32 -2, %186
  %197 = add i32 %196, %22
  %198 = sext i32 %197 to i64
  %199 = getelementptr inbounds [101 x i8], [101 x i8]* %3, i64 0, i64 %198
  %200 = load i8, i8* %199, align 1, !tbaa !9
  %201 = sext i8 %200 to i32
  %202 = add nsw i32 %201, -48
  %203 = getelementptr inbounds [101 x i32], [101 x i32]* %5, i64 0, i64 %195
  store i32 %202, i32* %203, align 4, !tbaa !5
  %204 = add nuw nsw i64 %185, 2
  %205 = add nuw nsw i32 %186, 2
  %206 = icmp eq i64 %204, %91
  br i1 %206, label %177, label %184, !llvm.loop !15

207:                                              ; preds = %207, %182
  %208 = phi i64 [ 0, %182 ], [ %234, %207 ]
  %209 = phi i32 [ 0, %182 ], [ %231, %207 ]
  %210 = phi i64 [ %183, %182 ], [ %235, %207 ]
  %211 = getelementptr inbounds [101 x i32], [101 x i32]* %4, i64 0, i64 %208
  %212 = load i32, i32* %211, align 8, !tbaa !5
  %213 = add i32 %212, %209
  %214 = getelementptr inbounds [101 x i32], [101 x i32]* %5, i64 0, i64 %208
  %215 = load i32, i32* %214, align 8, !tbaa !5
  %216 = icmp slt i32 %213, %215
  %217 = add nsw i32 %213, 10
  %218 = select i1 %216, i32 %217, i32 %213
  %219 = sext i1 %216 to i32
  %220 = sub i32 %218, %215
  %221 = getelementptr inbounds [101 x i32], [101 x i32]* %6, i64 0, i64 %208
  store i32 %220, i32* %221, align 8
  %222 = or i64 %208, 1
  %223 = getelementptr inbounds [101 x i32], [101 x i32]* %4, i64 0, i64 %222
  %224 = load i32, i32* %223, align 4, !tbaa !5
  %225 = add i32 %224, %219
  %226 = getelementptr inbounds [101 x i32], [101 x i32]* %5, i64 0, i64 %222
  %227 = load i32, i32* %226, align 4, !tbaa !5
  %228 = icmp slt i32 %225, %227
  %229 = add nsw i32 %225, 10
  %230 = select i1 %228, i32 %229, i32 %225
  %231 = sext i1 %228 to i32
  %232 = sub i32 %230, %227
  %233 = getelementptr inbounds [101 x i32], [101 x i32]* %6, i64 0, i64 %222
  store i32 %232, i32* %233, align 4
  %234 = add nuw nsw i64 %208, 2
  %235 = add i64 %210, -2
  %236 = icmp eq i64 %235, 0
  br i1 %236, label %237, label %207, !llvm.loop !16

237:                                              ; preds = %207, %178
  %238 = phi i64 [ 0, %178 ], [ %234, %207 ]
  %239 = phi i32 [ 0, %178 ], [ %231, %207 ]
  %240 = icmp eq i64 %180, 0
  br i1 %240, label %252, label %241

241:                                              ; preds = %237
  %242 = getelementptr inbounds [101 x i32], [101 x i32]* %4, i64 0, i64 %238
  %243 = load i32, i32* %242, align 4, !tbaa !5
  %244 = add i32 %243, %239
  %245 = getelementptr inbounds [101 x i32], [101 x i32]* %5, i64 0, i64 %238
  %246 = load i32, i32* %245, align 4, !tbaa !5
  %247 = icmp slt i32 %244, %246
  %248 = add nsw i32 %244, 10
  %249 = select i1 %247, i32 %248, i32 %244
  %250 = sub i32 %249, %246
  %251 = getelementptr inbounds [101 x i32], [101 x i32]* %6, i64 0, i64 %238
  store i32 %250, i32* %251, align 4
  br label %252

252:                                              ; preds = %241, %237, %177
  %253 = call i32 @putchar(i32 10)
  %254 = shl i64 %19, 32
  %255 = add i64 %254, -4294967296
  %256 = ashr exact i64 %255, 32
  %257 = getelementptr inbounds [101 x i32], [101 x i32]* %6, i64 0, i64 %256
  %258 = load i32, i32* %257, align 4, !tbaa !5
  %259 = icmp eq i32 %258, 0
  br i1 %259, label %262, label %260

260:                                              ; preds = %252
  %261 = call i32 (i8*, ...) @printf(i8* nonnull dereferenceable(1) getelementptr inbounds ([3 x i8], [3 x i8]* @.str, i64 0, i64 0), i32 %258)
  br label %262

262:                                              ; preds = %260, %252
  %263 = icmp sgt i32 %20, 1
  br i1 %263, label %264, label %274

264:                                              ; preds = %262
  %265 = add i64 %19, 4294967294
  %266 = and i64 %265, 4294967295
  br label %267

267:                                              ; preds = %264, %267
  %268 = phi i64 [ %266, %264 ], [ %273, %267 ]
  %269 = getelementptr inbounds [101 x i32], [101 x i32]* %6, i64 0, i64 %268
  %270 = load i32, i32* %269, align 4, !tbaa !5
  %271 = call i32 (i8*, ...) @printf(i8* nonnull dereferenceable(1) getelementptr inbounds ([3 x i8], [3 x i8]* @.str, i64 0, i64 0), i32 %270)
  %272 = icmp sgt i64 %268, 0
  %273 = add nsw i64 %268, -1
  br i1 %272, label %267, label %274, !llvm.loop !17

274:                                              ; preds = %267, %262
  call void @llvm.lifetime.end.p0i8(i64 404, i8* nonnull %13) #6
  call void @llvm.lifetime.end.p0i8(i64 404, i8* nonnull %12) #6
  call void @llvm.lifetime.end.p0i8(i64 404, i8* nonnull %11) #6
  call void @llvm.lifetime.end.p0i8(i64 101, i8* nonnull %10) #6
  call void @llvm.lifetime.end.p0i8(i64 101, i8* nonnull %9) #6
  %275 = add nuw nsw i32 %17, 1
  %276 = load i32, i32* %1, align 4, !tbaa !5
  %277 = icmp slt i32 %275, %276
  br i1 %277, label %16, label %278, !llvm.loop !18

278:                                              ; preds = %274, %0
  call void @llvm.lifetime.end.p0i8(i64 4, i8* nonnull %7) #6
  ret i32 0
}